Certificate:
    Data:
        Version: 3 (0x2)
        Serial Number: 9345343105994254487 (0x81b1540a88eee897)
    Signature Algorithm: sha256WithRSAEncryption
        Issuer: C=US, ST=abc, O=test, OU=mine, CN=RootCA/emailAddress=rootca@example.org
        Validity
            Not Before: Mar 29 10:18:32 2018 GMT
            Not After : Mar 29 10:18:32 2019 GMT
        Subject: C=US, ST=abc, L=abc, O=test, OU=mine, CN=CA/emailAddress=ca@example.org
        Subject Public Key Info:
            Public Key Algorithm: rsaEncryption
                Public-Key: (2048 bit)
                Modulus:
                    00:bd:1d:66:74:10:dd:e8:9d:6c:a7:a4:db:f9:1f:
                    4c:f8:17:ad:68:09:48:5b:80:47:06:a9:c0:ac:06:
                    5d:ec:d3:09:a1:b3:dd:ce:5b:54:0a:aa:b2:e0:16:
                    c1:34:6a:57:6e:1b:1f:4c:c6:86:6a:1b:df:23:4a:
                    a0:d1:e2:14:8e:bf:92:02:19:95:94:5a:4d:19:47:
                    c0:f3:a0:df:95:1b:e2:f5:54:d2:7e:fb:85:2e:72:
                    fd:38:0f:72:a2:8b:bf:cc:2d:ff:ff:9c:45:9f:35:
                    72:cf:30:c1:76:81:67:67:74:85:67:54:f0:1a:f4:
                    dd:d8:02:cd:e2:b1:62:bc:99:7f:cd:93:78:31:a4:
                    dd:8a:e3:90:88:41:0a:0b:06:31:18:33:fe:41:e3:
                    be:38:ee:e5:fe:a6:88:71:48:ca:a8:61:d1:c1:3a:
                    8d:b3:63:b6:b2:d9:e4:38:5b:6e:06:cf:62:2e:e3:
                    b8:4c:46:48:5d:ff:db:5c:dd:0e:2d:f4:ad:85:cc:
                    55:5f:5e:f3:3d:94:c3:56:48:7f:1c:97:42:bb:1f:
                    63:e7:87:6b:e0:b4:09:6b:5f:a1:a8:0a:f8:f5:93:
                    00:de:c8:6a:4d:35:03:df:8d:bf:f8:fa:de:d6:1c:
                    a1:84:d6:cd:fc:e3:69:43:4c:e1:bd:ee:18:84:47:
                    fb:b7
                Exponent: 65537 (0x10001)
        X509v3 extensions:
            X509v3 Subject Key Identifier: 
                BB:0D:0E:FA:28:1D:2C:31:39:BC:1C:85:6C:24:E7:23:E8:0A:68:41
            X509v3 Authority Key Identifier: 
                keyid:C2:41:A9:2D:F2:62:0D:6A:71:0C:3A:8E:60:FF:B6:06:CF:24:50:FE

            X509v3 Basic Constraints: 
                CA:TRUE
    Signature Algorithm: sha256WithRSAEncryption
         4a:69:84:e8:c9:26:f1:ad:a6:e5:3e:0c:3b:e1:3c:0a:4b:04:
         d8:5d:0e:07:8a:e7:e5:cc:33:0a:88:39:a2:08:6e:11:c8:f2:
         f6:6a:50:57:ab:8f:84:07:9a:63:37:67:bf:61:4e:d0:aa:7e:
         5e:80:c9:c9:8a:0a:c1:53:e4:6e:96:e9:9b:b8:a3:48:23:d6:
         bd:21:ba:91:25:a6:c5:01:c6:94:68:21:a6:cc:f8:b1:c9:18:
         54:7e:b6:84:9a:f6:75:3b:8f:51:7f:98:ef:31:89:09:90:de:
         0b:6f:6d:b8:fe:77:35:c6:ac:c1:96:41:bc:b3:2a:74:68:e7:
         8b:6f:fd:b2:f2:75:70:1b:95:a9:26:ed:4a:a5:87:a1:3c:69:
         61:90:c9:a6:b6:5d:8e:55:bf:4b:63:24:02:d3:4d:79:af:58:
         f8:a1:a4:0b:00:b5:da:c0:1d:96:a3:76:09:6f:03:83:e5:a8:
         4d:1a:f1:5b:83:dc:9f:19:41:08:66:c5:89:b1:cf:3c:b1:fd:
         fc:28:d1:89:6a:b7:07:55:08:3f:4c:ae:74:f2:c9:7d:4b:32:
         bf:06:1a:08:46:77:86:68:4e:20:bc:c3:5b:76:ab:e6:71:50:
         60:e4:25:71:a2:20:85:81:06:08:43:ce:78:69:e4:8a:40:f0:
         5a:39:f3:3b
-----BEGIN CERTIFICATE-----
MIIDszCCApugAwIBAgIJAIGxVAqI7uiXMA0GCSqGSIb3DQEBCwUAMG0xCzAJBgNV
BAYTAlVTMQwwCgYDVQQIDANhYmMxDTALBgNVBAoMBHRlc3QxDTALBgNVBAsMBG1p
bmUxDzANBgNVBAMMBlJvb3RDQTEhMB8GCSqGSIb3DQEJARYScm9vdGNhQGV4YW1w
bGUub3JnMB4XDTE4MDMyOTEwMTgzMloXDTE5MDMyOTEwMTgzMlowczELMAkGA1UE
BhMCVVMxDDAKBgNVBAgMA2FiYzEMMAoGA1UEBwwDYWJjMQ0wCwYDVQQKDAR0ZXN0
MQ0wCwYDVQQLDARtaW5lMQswCQYDVQQDDAJDQTEdMBsGCSqGSIb3DQEJARYOY2FA
ZXhhbXBsZS5vcmcwggEiMA0GCSqGSIb3DQEBAQUAA4IBDwAwggEKAoIBAQC9HWZ0
EN3onWynpNv5H0z4F61oCUhbgEcGqcCsBl3s0wmhs93OW1QKqrLgFsE0alduGx9M
xoZqG98jSqDR4hSOv5ICGZWUWk0ZR8DzoN+VG+L1VNJ++4Uucv04D3Kii7/MLf//
nEWfNXLPMMF2gWdndIVnVPAa9N3YAs3isWK8mX/Nk3gxpN2K45CIQQoLBjEYM/5B
47447uX+pohxSMqoYdHBOo2zY7ay2eQ4W24Gz2Iu47hMRkhd/9tc3Q4t9K2FzFVf
XvM9lMNWSH8cl0K7H2Pnh2vgtAlrX6GoCvj1kwDeyGpNNQPfjb/4+t7WHKGE1s38
42lDTOG97hiER/u3AgMBAAGjUDBOMB0GA1UdDgQWBBS7DQ76KB0sMTm8HIVsJOcj
6ApoQTAfBgNVHSMEGDAWgBTCQakt8mINanEMOo5g/7YGzyRQ/jAMBgNVHRMEBTAD
AQH/MA0GCSqGSIb3DQEBCwUAA4IBAQBKaYToySbxrablPgw74TwKSwTYXQ4Hiufl
zDMKiDmiCG4RyPL2alBXq4+EB5pjN2e/YU7Qqn5egMnJigrBU+RulumbuKNII9a9
IbqRJabFAcaUaCGmzPixyRhUfraEmvZ1O49Rf5jvMYkJkN4Lb224/nc1xqzBlkG8
syp0aOeLb/2y8nVwG5WpJu1KpYehPGlhkMmmtl2OVb9LYyQC0015r1j4oaQLALXa
wB2Wo3YJbwOD5ahNGvFbg9yfGUEIZsWJsc88sf38KNGJarcHVQg/TK508sl9SzK/
BhoIRneGaE4gvMNbdqvmcVBg5CVxoiCFgQYIQ854aeSKQPBaOfM7
-----END CERTIFICATE-----
