Certificate:
    Data:
        Version: 3 (0x2)
        Serial Number: 9345343105994254486 (0x81b1540a88eee896)
    Signature Algorithm: sha256WithRSAEncryption
        Issuer: C=US, ST=abc, O=test, OU=mine, CN=RootCA/emailAddress=rootca@example.org
        Validity
            Not Before: Mar 29 10:18:32 2018 GMT
            Not After : Mar 28 10:18:32 2021 GMT
        Subject: C=US, ST=abc, O=test, OU=mine, CN=RootCA/emailAddress=rootca@example.org
        Subject Public Key Info:
            Public Key Algorithm: rsaEncryption
                Public-Key: (2048 bit)
                Modulus:
                    00:ca:f4:cf:62:e0:5e:63:b0:bf:20:90:55:c9:e8:
                    27:d7:6c:c0:40:14:44:7b:60:d7:c3:b2:69:71:76:
                    7b:66:31:fb:66:57:95:b2:e9:8c:b8:d5:23:82:42:
                    22:eb:66:d7:c0:da:f0:60:2e:fe:a0:5b:97:9b:fc:
                    8b:7e:42:8f:12:72:6a:d1:46:9c:b1:df:54:db:e0:
                    66:4a:1a:4e:bb:55:34:e5:03:a1:67:3a:b8:2e:9f:
                    04:2f:4f:1d:5d:3a:d9:65:2d:af:b0:07:fc:2e:dd:
                    c4:a5:dc:14:fe:21:a6:c7:49:4a:f9:d5:00:bd:27:
                    97:67:90:6c:d4:e1:82:c7:28:e7:5c:b8:84:48:90:
                    13:48:18:0d:cf:4b:f3:dc:ab:23:45:9b:93:1a:b7:
                    b8:39:00:dc:6e:d0:b7:f2:05:d3:d2:6f:86:8f:3a:
                    93:25:34:bb:36:25:83:82:f3:6c:ff:3f:d6:91:be:
                    47:c9:d9:d4:5a:55:24:95:4a:f8:a6:41:17:d8:b4:
                    00:99:82:bb:64:f4:9c:f4:32:b3:33:55:f6:7b:c7:
                    73:2e:ed:69:b4:cd:83:41:e1:4f:37:c8:59:09:47:
                    81:a3:c8:6c:51:dc:27:0e:91:f1:29:96:cb:6b:eb:
                    53:31:8a:05:79:49:a8:a9:7c:46:23:50:ca:c5:57:
                    fb:b1
                Exponent: 65537 (0x10001)
        X509v3 extensions:
            X509v3 Subject Key Identifier: 
                C2:41:A9:2D:F2:62:0D:6A:71:0C:3A:8E:60:FF:B6:06:CF:24:50:FE
            X509v3 Authority Key Identifier: 
                keyid:C2:41:A9:2D:F2:62:0D:6A:71:0C:3A:8E:60:FF:B6:06:CF:24:50:FE

            X509v3 Basic Constraints: 
                CA:TRUE
    Signature Algorithm: sha256WithRSAEncryption
         b9:c0:26:e1:92:ba:3f:24:dc:17:14:b2:39:86:41:8c:1c:51:
         e8:d6:52:8d:a5:8e:e0:33:35:ef:2f:05:e0:05:ba:41:71:5c:
         53:71:10:dd:44:ec:4d:1f:88:96:09:31:f3:6d:98:32:ba:17:
         18:4a:40:d4:23:24:38:49:a2:21:e2:79:84:bb:38:b3:29:94:
         8a:a2:a8:34:1a:90:cd:0c:7d:54:7f:d2:5c:fc:cf:e2:02:a6:
         33:b4:34:f6:09:94:72:5d:92:c3:94:96:0d:42:09:95:23:ef:
         51:56:da:e2:c0:35:b9:73:28:f4:5a:56:f4:bd:b9:0f:15:25:
         b7:2d:21:1b:1f:16:af:aa:56:53:e2:82:be:65:61:2c:05:93:
         bb:3e:d1:65:1d:0e:33:a9:9e:6f:bc:47:4f:f1:8e:f0:98:8a:
         fd:7a:67:72:70:e3:81:b1:ff:ff:d1:f4:a7:b8:92:22:32:5e:
         a0:00:dd:3f:c4:90:f4:90:9c:b0:3e:3e:6d:a3:77:d6:c4:83:
         09:6a:50:6c:e5:a0:ea:0b:c8:df:dc:38:e9:36:13:39:d8:5a:
         91:c9:2e:40:50:87:39:c7:32:4a:89:b4:69:ce:56:ff:d7:5a:
         8a:53:51:de:47:86:1e:b1:6b:71:7b:90:68:dd:2d:1d:56:6d:
         80:f4:c5:b6
-----BEGIN CERTIFICATE-----
MIIDrTCCApWgAwIBAgIJAIGxVAqI7uiWMA0GCSqGSIb3DQEBCwUAMG0xCzAJBgNV
BAYTAlVTMQwwCgYDVQQIDANhYmMxDTALBgNVBAoMBHRlc3QxDTALBgNVBAsMBG1p
bmUxDzANBgNVBAMMBlJvb3RDQTEhMB8GCSqGSIb3DQEJARYScm9vdGNhQGV4YW1w
bGUub3JnMB4XDTE4MDMyOTEwMTgzMloXDTIxMDMyODEwMTgzMlowbTELMAkGA1UE
BhMCVVMxDDAKBgNVBAgMA2FiYzENMAsGA1UECgwEdGVzdDENMAsGA1UECwwEbWlu
ZTEPMA0GA1UEAwwGUm9vdENBMSEwHwYJKoZIhvcNAQkBFhJyb290Y2FAZXhhbXBs
ZS5vcmcwggEiMA0GCSqGSIb3DQEBAQUAA4IBDwAwggEKAoIBAQDK9M9i4F5jsL8g
kFXJ6CfXbMBAFER7YNfDsmlxdntmMftmV5Wy6Yy41SOCQiLrZtfA2vBgLv6gW5eb
/It+Qo8ScmrRRpyx31Tb4GZKGk67VTTlA6FnOrgunwQvTx1dOtllLa+wB/wu3cSl
3BT+IabHSUr51QC9J5dnkGzU4YLHKOdcuIRIkBNIGA3PS/PcqyNFm5Mat7g5ANxu
0LfyBdPSb4aPOpMlNLs2JYOC82z/P9aRvkfJ2dRaVSSVSvimQRfYtACZgrtk9Jz0
MrMzVfZ7x3Mu7Wm0zYNB4U83yFkJR4GjyGxR3CcOkfEplstr61MxigV5SaipfEYj
UMrFV/uxAgMBAAGjUDBOMB0GA1UdDgQWBBTCQakt8mINanEMOo5g/7YGzyRQ/jAf
BgNVHSMEGDAWgBTCQakt8mINanEMOo5g/7YGzyRQ/jAMBgNVHRMEBTADAQH/MA0G
CSqGSIb3DQEBCwUAA4IBAQC5wCbhkro/JNwXFLI5hkGMHFHo1lKNpY7gMzXvLwXg
BbpBcVxTcRDdROxNH4iWCTHzbZgyuhcYSkDUIyQ4SaIh4nmEuzizKZSKoqg0GpDN
DH1Uf9Jc/M/iAqYztDT2CZRyXZLDlJYNQgmVI+9RVtriwDW5cyj0Wlb0vbkPFSW3
LSEbHxavqlZT4oK+ZWEsBZO7PtFlHQ4zqZ5vvEdP8Y7wmIr9emdycOOBsf//0fSn
uJIiMl6gAN0/xJD0kJywPj5to3fWxIMJalBs5aDqC8jf3DjpNhM52FqRyS5AUIc5
xzJKibRpzlb/11qKU1HeR4YesWtxe5Bo3S0dVm2A9MW2
-----END CERTIFICATE-----
