Certificate:
    Data:
        Version: 3 (0x2)
        Serial Number: 9345343105994254486 (0x81b1540a88eee896)
    Signature Algorithm: sha256WithRSAEncryption
        Issuer: C=US, ST=abc, O=test, OU=mine, CN=RootCA/emailAddress=rootca@example.org
        Validity
            Not Before: Mar 29 10:18:32 2018 GMT
            Not After : Mar 28 10:18:32 2021 GMT
        Subject: C=US, ST=abc, O=test, OU=mine, CN=RootCA/emailAddress=rootca@example.org
        Subject Public Key Info:
            Public Key Algorithm: rsaEncryption
                Public-Key: (2048 bit)
                Modulus:
                    00:ca:f4:cf:62:e0:5e:63:b0:bf:20:90:55:c9:e8:
                    27:d7:6c:c0:40:14:44:7b:60:d7:c3:b2:69:71:76:
                    7b:66:31:fb:66:57:95:b2:e9:8c:b8:d5:23:82:42:
                    22:eb:66:d7:c0:da:f0:60:2e:fe:a0:5b:97:9b:fc:
                    8b:7e:42:8f:12:72:6a:d1:46:9c:b1:df:54:db:e0:
                    66:4a:1a:4e:bb:55:34:e5:03:a1:67:3a:b8:2e:9f:
                    04:2f:4f:1d:5d:3a:d9:65:2d:af:b0:07:fc:2e:dd:
                    c4:a5:dc:14:fe:21:a6:c7:49:4a:f9:d5:00:bd:27:
                    97:67:90:6c:d4:e1:82:c7:28:e7:5c:b8:84:48:90:
                    13:48:18:0d:cf:4b:f3:dc:ab:23:45:9b:93:1a:b7:
                    b8:39:00:dc:6e:d0:b7:f2:05:d3:d2:6f:86:8f:3a:
                    93:25:34:bb:36:25:83:82:f3:6c:ff:3f:d6:91:be:
                    47:c9:d9:d4:5a:55:24:95:4a:f8:a6:41:17:d8:b4:
                    00:99:82:bb:64:f4:9c:f4:32:b3:33:55:f6:7b:c7:
                    73:2e:ed:69:b4:cd:83:41:e1:4f:37:c8:59:09:47:
                    81:a3:c8:6c:51:dc:27:0e:91:f1:29:96:cb:6b:eb:
                    53:31:8a:05:79:49:a8:a9:7c:46:23:50:ca:c5:57:
                    fb:b1
                Exponent: 65537 (0x10001)
        X509v3 extensions:
            X509v3 Subject Key Identifier: 
                C2:41:A9:2D:F2:62:0D:6A:71:0C:3A:8E:60:FF:B6:06:CF:24:50:FE
            X509v3 Authority Key Identifier: 
                keyid:C2:41:A9:2D:F2:62:0D:6A:71:0C:3A:8E:60:FF:B6:06:CF:24:50:FE

            X509v3 Basic Constraints: 
                CA:TRUE
    Signature Algorithm: sha256WithRSAEncryption
         b9:c0:26:e1:92:ba:3f:24:dc:17:14:b2:39:86:41:8c:1c:51:
         e8:d6:52:8d:a5:8e:e0:33:35:ef:2f:05:e0:05:ba:41:71:5c:
         53:71:10:dd:44:ec:4d:1f:88:96:09:31:f3:6d:98:32:ba:17:
         18:4a:40:d4:23:24:38:49:a2:21:e2:79:84:bb:38:b3:29:94:
         8a:a2:a8:34:1a:90:cd:0c:7d:54:7f:d2:5c:fc:cf:e2:02:a6:
         33:b4:34:f6:09:94:72:5d:92:c3:94:96:0d:42:09:95:23:ef:
         51:56:da:e2:c0:35:b9:73:28:f4:5a:56:f4:bd:b9:0f:15:25:
         b7:2d:21:1b:1f:16:af:aa:56:53:e2:82:be:65:61:2c:05:93:
         bb:3e:d1:65:1d:0e:33:a9:9e:6f:bc:47:4f:f1:8e:f0:98:8a:
         fd:7a:67:72:70:e3:81:b1:ff:ff:d1:f4:a7:b8:92:22:32:5e:
         a0:00:dd:3f:c4:90:f4:90:9c:b0:3e:3e:6d:a3:77:d6:c4:83:
         09:6a:50:6c:e5:a0:ea:0b:c8:df:dc:38:e9:36:13:39:d8:5a:
         91:c9:2e:40:50:87:39:c7:32:4a:89:b4:69:ce:56:ff:d7:5a:
         8a:53:51:de:47:86:1e:b1:6b:71:7b:90:68:dd:2d:1d:56:6d:
         80:f4:c5:b6
-----BEGIN CERTIFICATE-----
MIIDrTCCApWgAwIBAgIJAIGxVAqI7uiWMA0GCSqGSIb3DQEBCwUAMG0xCzAJBgNV
BAYTAlVTMQwwCgYDVQQIDANhYmMxDTALBgNVBAoMBHRlc3QxDTALBgNVBAsMBG1p
bmUxDzANBgNVBAMMBlJvb3RDQTEhMB8GCSqGSIb3DQEJARYScm9vdGNhQGV4YW1w
bGUub3JnMB4XDTE4MDMyOTEwMTgzMloXDTIxMDMyODEwMTgzMlowbTELMAkGA1UE
BhMCVVMxDDAKBgNVBAgMA2FiYzENMAsGA1UECgwEdGVzdDENMAsGA1UECwwEbWlu
ZTEPMA0GA1UEAwwGUm9vdENBMSEwHwYJKoZIhvcNAQkBFhJyb290Y2FAZXhhbXBs
ZS5vcmcwggEiMA0GCSqGSIb3DQEBAQUAA4IBDwAwggEKAoIBAQDK9M9i4F5jsL8g
kFXJ6CfXbMBAFER7YNfDsmlxdntmMftmV5Wy6Yy41SOCQiLrZtfA2vBgLv6gW5eb
/It+Qo8ScmrRRpyx31Tb4GZKGk67VTTlA6FnOrgunwQvTx1dOtllLa+wB/wu3cSl
3BT+IabHSUr51QC9J5dnkGzU4YLHKOdcuIRIkBNIGA3PS/PcqyNFm5Mat7g5ANxu
0LfyBdPSb4aPOpMlNLs2JYOC82z/P9aRvkfJ2dRaVSSVSvimQRfYtACZgrtk9Jz0
MrMzVfZ7x3Mu7Wm0zYNB4U83yFkJR4GjyGxR3CcOkfEplstr61MxigV5SaipfEYj
UMrFV/uxAgMBAAGjUDBOMB0GA1UdDgQWBBTCQakt8mINanEMOo5g/7YGzyRQ/jAf
BgNVHSMEGDAWgBTCQakt8mINanEMOo5g/7YGzyRQ/jAMBgNVHRMEBTADAQH/MA0G
CSqGSIb3DQEBCwUAA4IBAQC5wCbhkro/JNwXFLI5hkGMHFHo1lKNpY7gMzXvLwXg
BbpBcVxTcRDdROxNH4iWCTHzbZgyuhcYSkDUIyQ4SaIh4nmEuzizKZSKoqg0GpDN
DH1Uf9Jc/M/iAqYztDT2CZRyXZLDlJYNQgmVI+9RVtriwDW5cyj0Wlb0vbkPFSW3
LSEbHxavqlZT4oK+ZWEsBZO7PtFlHQ4zqZ5vvEdP8Y7wmIr9emdycOOBsf//0fSn
uJIiMl6gAN0/xJD0kJywPj5to3fWxIMJalBs5aDqC8jf3DjpNhM52FqRyS5AUIc5
xzJKibRpzlb/11qKU1HeR4YesWtxe5Bo3S0dVm2A9MW2
-----END CERTIFICATE-----
Certificate:
    Data:
        Version: 3 (0x2)
        Serial Number: 9345343105994254487 (0x81b1540a88eee897)
    Signature Algorithm: sha256WithRSAEncryption
        Issuer: C=US, ST=abc, O=test, OU=mine, CN=RootCA/emailAddress=rootca@example.org
        Validity
            Not Before: Mar 29 10:18:32 2018 GMT
            Not After : Mar 29 10:18:32 2019 GMT
        Subject: C=US, ST=abc, L=abc, O=test, OU=mine, CN=CA/emailAddress=ca@example.org
        Subject Public Key Info:
            Public Key Algorithm: rsaEncryption
                Public-Key: (2048 bit)
                Modulus:
                    00:bd:1d:66:74:10:dd:e8:9d:6c:a7:a4:db:f9:1f:
                    4c:f8:17:ad:68:09:48:5b:80:47:06:a9:c0:ac:06:
                    5d:ec:d3:09:a1:b3:dd:ce:5b:54:0a:aa:b2:e0:16:
                    c1:34:6a:57:6e:1b:1f:4c:c6:86:6a:1b:df:23:4a:
                    a0:d1:e2:14:8e:bf:92:02:19:95:94:5a:4d:19:47:
                    c0:f3:a0:df:95:1b:e2:f5:54:d2:7e:fb:85:2e:72:
                    fd:38:0f:72:a2:8b:bf:cc:2d:ff:ff:9c:45:9f:35:
                    72:cf:30:c1:76:81:67:67:74:85:67:54:f0:1a:f4:
                    dd:d8:02:cd:e2:b1:62:bc:99:7f:cd:93:78:31:a4:
                    dd:8a:e3:90:88:41:0a:0b:06:31:18:33:fe:41:e3:
                    be:38:ee:e5:fe:a6:88:71:48:ca:a8:61:d1:c1:3a:
                    8d:b3:63:b6:b2:d9:e4:38:5b:6e:06:cf:62:2e:e3:
                    b8:4c:46:48:5d:ff:db:5c:dd:0e:2d:f4:ad:85:cc:
                    55:5f:5e:f3:3d:94:c3:56:48:7f:1c:97:42:bb:1f:
                    63:e7:87:6b:e0:b4:09:6b:5f:a1:a8:0a:f8:f5:93:
                    00:de:c8:6a:4d:35:03:df:8d:bf:f8:fa:de:d6:1c:
                    a1:84:d6:cd:fc:e3:69:43:4c:e1:bd:ee:18:84:47:
                    fb:b7
                Exponent: 65537 (0x10001)
        X509v3 extensions:
            X509v3 Subject Key Identifier: 
                BB:0D:0E:FA:28:1D:2C:31:39:BC:1C:85:6C:24:E7:23:E8:0A:68:41
            X509v3 Authority Key Identifier: 
                keyid:C2:41:A9:2D:F2:62:0D:6A:71:0C:3A:8E:60:FF:B6:06:CF:24:50:FE

            X509v3 Basic Constraints: 
                CA:TRUE
    Signature Algorithm: sha256WithRSAEncryption
         4a:69:84:e8:c9:26:f1:ad:a6:e5:3e:0c:3b:e1:3c:0a:4b:04:
         d8:5d:0e:07:8a:e7:e5:cc:33:0a:88:39:a2:08:6e:11:c8:f2:
         f6:6a:50:57:ab:8f:84:07:9a:63:37:67:bf:61:4e:d0:aa:7e:
         5e:80:c9:c9:8a:0a:c1:53:e4:6e:96:e9:9b:b8:a3:48:23:d6:
         bd:21:ba:91:25:a6:c5:01:c6:94:68:21:a6:cc:f8:b1:c9:18:
         54:7e:b6:84:9a:f6:75:3b:8f:51:7f:98:ef:31:89:09:90:de:
         0b:6f:6d:b8:fe:77:35:c6:ac:c1:96:41:bc:b3:2a:74:68:e7:
         8b:6f:fd:b2:f2:75:70:1b:95:a9:26:ed:4a:a5:87:a1:3c:69:
         61:90:c9:a6:b6:5d:8e:55:bf:4b:63:24:02:d3:4d:79:af:58:
         f8:a1:a4:0b:00:b5:da:c0:1d:96:a3:76:09:6f:03:83:e5:a8:
         4d:1a:f1:5b:83:dc:9f:19:41:08:66:c5:89:b1:cf:3c:b1:fd:
         fc:28:d1:89:6a:b7:07:55:08:3f:4c:ae:74:f2:c9:7d:4b:32:
         bf:06:1a:08:46:77:86:68:4e:20:bc:c3:5b:76:ab:e6:71:50:
         60:e4:25:71:a2:20:85:81:06:08:43:ce:78:69:e4:8a:40:f0:
         5a:39:f3:3b
-----BEGIN CERTIFICATE-----
MIIDszCCApugAwIBAgIJAIGxVAqI7uiXMA0GCSqGSIb3DQEBCwUAMG0xCzAJBgNV
BAYTAlVTMQwwCgYDVQQIDANhYmMxDTALBgNVBAoMBHRlc3QxDTALBgNVBAsMBG1p
bmUxDzANBgNVBAMMBlJvb3RDQTEhMB8GCSqGSIb3DQEJARYScm9vdGNhQGV4YW1w
bGUub3JnMB4XDTE4MDMyOTEwMTgzMloXDTE5MDMyOTEwMTgzMlowczELMAkGA1UE
BhMCVVMxDDAKBgNVBAgMA2FiYzEMMAoGA1UEBwwDYWJjMQ0wCwYDVQQKDAR0ZXN0
MQ0wCwYDVQQLDARtaW5lMQswCQYDVQQDDAJDQTEdMBsGCSqGSIb3DQEJARYOY2FA
ZXhhbXBsZS5vcmcwggEiMA0GCSqGSIb3DQEBAQUAA4IBDwAwggEKAoIBAQC9HWZ0
EN3onWynpNv5H0z4F61oCUhbgEcGqcCsBl3s0wmhs93OW1QKqrLgFsE0alduGx9M
xoZqG98jSqDR4hSOv5ICGZWUWk0ZR8DzoN+VG+L1VNJ++4Uucv04D3Kii7/MLf//
nEWfNXLPMMF2gWdndIVnVPAa9N3YAs3isWK8mX/Nk3gxpN2K45CIQQoLBjEYM/5B
47447uX+pohxSMqoYdHBOo2zY7ay2eQ4W24Gz2Iu47hMRkhd/9tc3Q4t9K2FzFVf
XvM9lMNWSH8cl0K7H2Pnh2vgtAlrX6GoCvj1kwDeyGpNNQPfjb/4+t7WHKGE1s38
42lDTOG97hiER/u3AgMBAAGjUDBOMB0GA1UdDgQWBBS7DQ76KB0sMTm8HIVsJOcj
6ApoQTAfBgNVHSMEGDAWgBTCQakt8mINanEMOo5g/7YGzyRQ/jAMBgNVHRMEBTAD
AQH/MA0GCSqGSIb3DQEBCwUAA4IBAQBKaYToySbxrablPgw74TwKSwTYXQ4Hiufl
zDMKiDmiCG4RyPL2alBXq4+EB5pjN2e/YU7Qqn5egMnJigrBU+RulumbuKNII9a9
IbqRJabFAcaUaCGmzPixyRhUfraEmvZ1O49Rf5jvMYkJkN4Lb224/nc1xqzBlkG8
syp0aOeLb/2y8nVwG5WpJu1KpYehPGlhkMmmtl2OVb9LYyQC0015r1j4oaQLALXa
wB2Wo3YJbwOD5ahNGvFbg9yfGUEIZsWJsc88sf38KNGJarcHVQg/TK508sl9SzK/
BhoIRneGaE4gvMNbdqvmcVBg5CVxoiCFgQYIQ854aeSKQPBaOfM7
-----END CERTIFICATE-----
