Certificate:
    Data:
        Version: 3 (0x2)
        Serial Number: 9345343105994254488 (0x81b1540a88eee898)
    Signature Algorithm: sha256WithRSAEncryption
        Issuer: C=US, ST=abc, L=abc, O=test, OU=mine, CN=CA/emailAddress=ca@example.org
        Validity
            Not Before: Mar 29 10:18:38 2018 GMT
            Not After : Mar 29 10:18:38 2019 GMT
        Subject: C=US, ST=abc, L=abc, O=test, OU=mine, CN=cert/emailAddress=cert@example.org
        Subject Public Key Info:
            Public Key Algorithm: rsaEncryption
                Public-Key: (2048 bit)
                Modulus:
                    00:d2:ec:53:de:0d:6a:25:02:7a:5a:b7:6d:18:9c:
                    be:53:e0:b5:8d:82:7d:40:5d:67:e1:4d:0e:17:dd:
                    7b:28:38:84:87:93:b0:fe:71:06:51:f6:d5:be:02:
                    fa:8f:00:f5:ea:8a:82:2c:95:b1:3f:f8:61:26:75:
                    78:33:3a:a3:21:6d:e2:89:00:12:cc:b4:d5:7f:a3:
                    a6:2e:a3:c5:72:0a:2f:db:12:65:76:71:30:6f:6b:
                    cb:3c:26:8f:e2:7d:1a:7b:0b:5a:05:12:22:64:20:
                    67:e5:fe:b0:8d:a4:48:41:e2:6c:44:71:8f:45:a2:
                    e5:a2:02:1e:07:0a:f8:7d:47:6a:f4:3e:07:df:6e:
                    ff:9b:91:30:19:3d:58:d2:4e:35:35:5b:49:b3:22:
                    94:10:f9:82:73:46:04:e3:b7:fe:78:c1:30:a1:08:
                    7f:59:3f:c8:a3:7c:49:7e:4b:b0:c0:b3:7c:88:0f:
                    5f:f5:f9:07:07:5a:78:fb:33:ed:dc:65:e8:23:01:
                    c2:9a:f6:53:48:7c:e0:25:01:7c:5b:41:1b:18:60:
                    1d:58:f2:76:38:94:22:d0:8a:c7:6b:a3:74:be:52:
                    33:20:5c:16:64:0e:96:29:f2:66:32:f1:3b:5e:98:
                    b8:d0:85:9f:9e:c7:df:7e:61:d6:30:ad:af:40:bf:
                    a2:fb
                Exponent: 65537 (0x10001)
        X509v3 extensions:
            X509v3 Basic Constraints: 
                CA:FALSE
            Netscape Comment: 
                OpenSSL Generated Certificate
            X509v3 Subject Key Identifier: 
                F2:DC:00:5C:88:97:D5:14:E7:1F:2D:EF:E4:F9:4F:60:78:16:C1:DF
            X509v3 Authority Key Identifier: 
                keyid:BB:0D:0E:FA:28:1D:2C:31:39:BC:1C:85:6C:24:E7:23:E8:0A:68:41

    Signature Algorithm: sha256WithRSAEncryption
         b2:a3:86:9a:dc:54:2e:d9:8d:9b:5b:c9:83:70:fa:1b:88:47:
         28:50:78:4b:cb:a2:5c:d0:10:ae:03:d3:cf:ee:cf:32:2e:d9:
         16:3d:94:01:6f:f4:0d:2b:78:7f:4c:18:26:7b:72:fc:83:ed:
         1c:3f:f2:41:5c:82:70:05:69:16:15:69:2b:6c:35:65:84:55:
         a0:6a:63:21:f1:fd:a8:5d:69:ee:0a:6d:a4:35:55:25:fe:2a:
         86:50:b3:8c:7a:1d:1d:80:4e:c4:ad:3d:a2:70:59:9f:e5:7b:
         ce:9c:e9:c5:0b:01:2a:ed:5e:05:be:19:57:63:a3:2b:47:f0:
         d5:90:ae:33:69:2f:2a:68:08:0b:83:80:15:b3:84:5c:dc:17:
         8b:19:47:69:ec:b9:8d:0d:52:f8:60:d4:48:d8:09:ca:63:45:
         91:08:17:31:db:16:85:1e:a7:8f:e8:17:4e:04:23:d8:48:f1:
         ee:23:0d:1d:78:8b:8f:9d:d6:75:61:8c:b6:15:36:6b:37:55:
         52:83:f4:c3:a6:d9:6f:2e:6f:ac:8d:20:2a:0b:c5:90:c5:2c:
         a4:93:7d:ff:8f:e7:6a:35:0c:57:da:ba:e5:7d:04:b8:8f:5b:
         6f:c1:1d:ab:e6:e9:e3:05:93:81:a1:44:8d:51:bb:1d:c4:e8:
         ec:2f:2c:60
-----BEGIN CERTIFICATE-----
MIID6DCCAtCgAwIBAgIJAIGxVAqI7uiYMA0GCSqGSIb3DQEBCwUAMHMxCzAJBgNV
BAYTAlVTMQwwCgYDVQQIDANhYmMxDDAKBgNVBAcMA2FiYzENMAsGA1UECgwEdGVz
dDENMAsGA1UECwwEbWluZTELMAkGA1UEAwwCQ0ExHTAbBgkqhkiG9w0BCQEWDmNh
QGV4YW1wbGUub3JnMB4XDTE4MDMyOTEwMTgzOFoXDTE5MDMyOTEwMTgzOFowdzEL
MAkGA1UEBhMCVVMxDDAKBgNVBAgMA2FiYzEMMAoGA1UEBwwDYWJjMQ0wCwYDVQQK
DAR0ZXN0MQ0wCwYDVQQLDARtaW5lMQ0wCwYDVQQDDARjZXJ0MR8wHQYJKoZIhvcN
AQkBFhBjZXJ0QGV4YW1wbGUub3JnMIIBIjANBgkqhkiG9w0BAQEFAAOCAQ8AMIIB
CgKCAQEA0uxT3g1qJQJ6WrdtGJy+U+C1jYJ9QF1n4U0OF917KDiEh5Ow/nEGUfbV
vgL6jwD16oqCLJWxP/hhJnV4MzqjIW3iiQASzLTVf6OmLqPFcgov2xJldnEwb2vL
PCaP4n0aewtaBRIiZCBn5f6wjaRIQeJsRHGPRaLlogIeBwr4fUdq9D4H327/m5Ew
GT1Y0k41NVtJsyKUEPmCc0YE47f+eMEwoQh/WT/Io3xJfkuwwLN8iA9f9fkHB1p4
+zPt3GXoIwHCmvZTSHzgJQF8W0EbGGAdWPJ2OJQi0IrHa6N0vlIzIFwWZA6WKfJm
MvE7Xpi40IWfnsfffmHWMK2vQL+i+wIDAQABo3sweTAJBgNVHRMEAjAAMCwGCWCG
SAGG+EIBDQQfFh1PcGVuU1NMIEdlbmVyYXRlZCBDZXJ0aWZpY2F0ZTAdBgNVHQ4E
FgQU8twAXIiX1RTnHy3v5PlPYHgWwd8wHwYDVR0jBBgwFoAUuw0O+igdLDE5vByF
bCTnI+gKaEEwDQYJKoZIhvcNAQELBQADggEBALKjhprcVC7ZjZtbyYNw+huIRyhQ
eEvLolzQEK4D08/uzzIu2RY9lAFv9A0reH9MGCZ7cvyD7Rw/8kFcgnAFaRYVaSts
NWWEVaBqYyHx/ahdae4KbaQ1VSX+KoZQs4x6HR2ATsStPaJwWZ/le86c6cULASrt
XgW+GVdjoytH8NWQrjNpLypoCAuDgBWzhFzcF4sZR2nsuY0NUvhg1EjYCcpjRZEI
FzHbFoUep4/oF04EI9hI8e4jDR14i4+d1nVhjLYVNms3VVKD9MOm2W8ub6yNICoL
xZDFLKSTff+P52o1DFfauuV9BLiPW2/BHavm6eMFk4GhRI1Rux3E6OwvLGA=
-----END CERTIFICATE-----
